; Function Attrs: mustprogress uwtable
define hidden noundef nonnull align 8 dereferenceable(160) ptr @_ZN11OpenImageIO6v3_1_016OpenEXRCoreInput9init_partEii(ptr noundef nonnull align 8 dereferenceable(280) %0, i32 noundef %1, i32 noundef %2) local_unnamed_addr #5 align 2 personality ptr @__gxx_personality_v0 {
  %4 = getelementptr inbounds nuw i8, ptr %0, i64 184
  %5 = sext i32 %1 to i64
  %6 = load ptr, ptr %4, align 8, !tbaa !141
  %7 = getelementptr inbounds nuw %"struct.OpenImageIO::v3_1_0::OpenEXRCoreInput::PartInfo", ptr %6, i64 %5
  %8 = load atomic i8, ptr %7 seq_cst, align 1
  %9 = trunc i8 %8 to i1
  br i1 %9, label %28, label %10

10:                                               ; preds = %3
  tail call void @_ZNK11OpenImageIO6v3_1_010ImageInput4lockEv(ptr noundef nonnull align 8 dereferenceable(184) %0)
  %11 = load atomic i8, ptr %7 seq_cst, align 1
  %12 = trunc i8 %11 to i1
  br i1 %12, label %24, label %13

13:                                               ; preds = %10
  %14 = invoke noundef zeroext i1 @_ZN11OpenImageIO6v3_1_016OpenEXRCoreInput13seek_subimageEii(ptr noundef nonnull align 8 dereferenceable(280) %0, i32 noundef %1, i32 noundef %2)
          to label %15 unwind label %19

15:                                               ; preds = %13
  br i1 %14, label %24, label %16

16:                                               ; preds = %15
  invoke void @_ZNK11OpenImageIO6v3_1_010ImageInput8errorfmtIJEEEvPKcDpRKT_(ptr noundef nonnull align 8 dereferenceable(184) %0, ptr noundef nonnull @.str.39)
          to label %17 unwind label %19

17:                                               ; preds = %16
  %18 = getelementptr inbounds nuw i8, ptr %7, i64 8
  br label %24

19:                                               ; preds = %16, %13
  %20 = landingpad { ptr, i32 }
          cleanup
  invoke void @_ZNK11OpenImageIO6v3_1_010ImageInput6unlockEv(ptr noundef nonnull align 8 dereferenceable(184) %0)
          to label %_ZNSt10lock_guardIRKN11OpenImageIO6v3_1_010ImageInputEED2Ev.exit unwind label %21

21:                                               ; preds = %19
  %22 = landingpad { ptr, i32 }
          catch ptr null
  %23 = extractvalue { ptr, i32 } %22, 0
  tail call void @__clang_call_terminate(ptr %23) #29
  unreachable

_ZNSt10lock_guardIRKN11OpenImageIO6v3_1_010ImageInputEED2Ev.exit: ; preds = %19
  resume { ptr, i32 } %20

24:                                               ; preds = %10, %15, %17
  %.011 = phi ptr [ %18, %17 ], [ undef, %15 ], [ undef, %10 ]
  %cond = phi i1 [ false, %17 ], [ true, %15 ], [ true, %10 ]
  invoke void @_ZNK11OpenImageIO6v3_1_010ImageInput6unlockEv(ptr noundef nonnull align 8 dereferenceable(184) %0)
          to label %_ZNSt10lock_guardIRKN11OpenImageIO6v3_1_010ImageInputEED2Ev.exit12 unwind label %25

25:                                               ; preds = %24
  %26 = landingpad { ptr, i32 }
          catch ptr null
  %27 = extractvalue { ptr, i32 } %26, 0
  tail call void @__clang_call_terminate(ptr %27) #29
  unreachable

_ZNSt10lock_guardIRKN11OpenImageIO6v3_1_010ImageInputEED2Ev.exit12: ; preds = %24
  br i1 %cond, label %28, label %30

28:                                               ; preds = %_ZNSt10lock_guardIRKN11OpenImageIO6v3_1_010ImageInputEED2Ev.exit12, %3
  %29 = getelementptr inbounds nuw i8, ptr %7, i64 8
  br label %30

30:                                               ; preds = %_ZNSt10lock_guardIRKN11OpenImageIO6v3_1_010ImageInputEED2Ev.exit12, %28
  %.1 = phi ptr [ %29, %28 ], [ %.011, %_ZNSt10lock_guardIRKN11OpenImageIO6v3_1_010ImageInputEED2Ev.exit12 ]
  ret ptr %.1
}